target datalayout = "e-m:e-p270:32:32-p271:32:32-p272:64:64-i64:64-i128:128-f80:128-n8:16:32:64-S128"
target triple = "x86_64-pc-linux-gnu"

%struct.mi_memid_s = type { %union.anon, i8, i8, i8, i32 }
%union.anon = type { %struct.mi_memid_os_info }
%struct.mi_memid_os_info = type { ptr, i64 }
%union.pthread_mutex_t = type { %struct.__pthread_mutex_s }
%struct.__pthread_mutex_s = type { i32, i32, i32, i32, i32, i16, i16, %struct.__pthread_internal_list }
%struct.__pthread_internal_list = type { ptr, ptr }
%struct.mi_subproc_s = type { i64, i64, %union.pthread_mutex_t, %union.pthread_mutex_t, ptr, ptr, %struct.mi_memid_s }
%struct.mi_arena_field_cursor_s = type { i64, i64, i64, i64, ptr, i8, i8 }

; Function Attrs: inlinehint nounwind uwtable
define internal void @mi_lock_release(ptr noundef %0) #4 {
  %2 = alloca ptr, align 8
  store ptr %0, ptr %2, align 8, !tbaa !53
  %3 = load ptr, ptr %2, align 8, !tbaa !53
  %4 = call i32 @pthread_mutex_unlock(ptr noundef %3) #14
  ret void
}

; Function Attrs: nounwind uwtable
define hidden void @_mi_arena_field_cursor_done(ptr noundef %0) #0 {
  %2 = alloca ptr, align 8
  store ptr %0, ptr %2, align 8, !tbaa !38
  %3 = load ptr, ptr %2, align 8, !tbaa !38
  %4 = getelementptr inbounds nuw %struct.mi_arena_field_cursor_s, ptr %3, i32 0, i32 6
  %5 = load i8, ptr %4, align 1, !tbaa !44, !range !22, !noundef !23
  %6 = trunc i8 %5 to i1
  br i1 %6, label %7, label %14

7:                                                ; preds = %1
  %8 = load ptr, ptr %2, align 8, !tbaa !38
  %9 = getelementptr inbounds nuw %struct.mi_arena_field_cursor_s, ptr %8, i32 0, i32 4
  %10 = load ptr, ptr %9, align 8, !tbaa !42
  %11 = getelementptr inbounds nuw %struct.mi_subproc_s, ptr %10, i32 0, i32 3
  call void @mi_lock_release(ptr noundef %11) #12
  %12 = load ptr, ptr %2, align 8, !tbaa !38
  %13 = getelementptr inbounds nuw %struct.mi_arena_field_cursor_s, ptr %12, i32 0, i32 6
  store i8 0, ptr %13, align 1, !tbaa !44
  br label %14

14:                                               ; preds = %7, %1
  ret void
}