; Function Attrs: nounwind uwtable
define hidden void @_mi_arena_field_cursor_done(ptr noundef captures(none) %0) local_unnamed_addr #0 {
  %2 = getelementptr inbounds nuw i8, ptr %0, i64 41
  %3 = load i8, ptr %2, align 1, !tbaa !32, !range !26, !noundef !27
  %4 = trunc nuw i8 %3 to i1
  br i1 %4, label %5, label %10

5:                                                ; preds = %1
  %6 = getelementptr inbounds nuw i8, ptr %0, i64 32
  %7 = load ptr, ptr %6, align 8, !tbaa !30
  %8 = getelementptr inbounds nuw i8, ptr %7, i64 56
  %9 = tail call i32 @pthread_mutex_unlock(ptr noundef nonnull %8) #20
  store i8 0, ptr %2, align 1, !tbaa !32
  br label %10

10:                                               ; preds = %5, %1
  ret void
}